target datalayout = "e-m:e-p270:32:32-p271:32:32-p272:64:64-i64:64-i128:128-f80:128-n8:16:32:64-S128"
target triple = "x86_64-pc-linux-gnu"

%struct.H5F_shared_t = type { ptr, ptr, ptr, i8, i32, i32, %struct.H5F_mtab_t, ptr, i8, i8, i64, i32, i32, i64, i64, ptr, ptr, %struct.H5AC_cache_config_t, %struct.H5AC_cache_image_config_t, i8, i8, ptr, i64, i32, i8, i64, i64, double, i64, i64, i64, i32, i32, i32, i8, i32, ptr, ptr, ptr, ptr, i8, i8, i8, i64, ptr, ptr, i32, i64, i8, i32, i8, i64, i8, [13 x i32], [13 x i64], [13 x ptr], i8, i64, i64, [7 x i32], [7 x i32], %struct.H5F_blk_aggr_t, %struct.H5F_blk_aggr_t, i64, i64, %struct.H5F_meta_accum_t, i32, i32, [30 x ptr], %struct.H5F_object_flush_t, i8, ptr }
%struct.H5F_mtab_t = type { i32, i32, ptr }
%struct.H5AC_cache_config_t = type { i32, i8, i8, i8, [1025 x i8], i8, i8, i64, double, i64, i64, i64, i32, double, double, i8, i64, i32, double, double, i32, double, double, i8, i64, i32, i8, double, i64, i32 }
%struct.H5AC_cache_image_config_t = type { i32, i8, i8, i32 }
%struct.H5F_blk_aggr_t = type { i64, i64, i64, i64, i64 }
%struct.H5F_meta_accum_t = type { ptr, i64, i64, i64, i64, i64, i8 }
%struct.H5F_object_flush_t = type { ptr, ptr }

@H5F_init_g = external global i8, align 1
@H5_libterm_g = external global i8, align 1
@.str = private unnamed_addr constant [102 x i8] c"generated/home/dtcxzyw/WorkSpace/Projects/compilers/llvm-opt-benchmark/bench/hdf5/hdf5/src/H5Faccum.c\00", align 1
@H5E_IO_g = external global i64, align 8
@H5E_WRITEERROR_g = external global i64, align 8
@.str.4 = private unnamed_addr constant [18 x i8] c"file write failed\00", align 1
@__func__.H5F__accum_flush = private unnamed_addr constant [17 x i8] c"H5F__accum_flush\00", align 1

; Function Attrs: nounwind uwtable
define i32 @H5F__accum_flush(ptr noundef %0) #0 {
  %2 = alloca i32, align 4
  %3 = alloca ptr, align 8
  %4 = alloca i32, align 4
  %5 = alloca i8, align 1
  %6 = alloca ptr, align 8
  %7 = alloca i32, align 4
  store ptr %0, ptr %3, align 8, !tbaa !3
  call void @llvm.lifetime.start.p0(i64 4, ptr %4) #7
  store i32 0, ptr %4, align 4, !tbaa !8
  call void @llvm.lifetime.start.p0(i64 1, ptr %5) #7
  store i8 0, ptr %5, align 1, !tbaa !13
  %8 = load i8, ptr @H5F_init_g, align 1, !tbaa !13, !range !15, !noundef !16
  %9 = trunc i8 %8 to i1
  br i1 %9, label %14, label %10

10:                                               ; preds = %1
  %11 = load i8, ptr @H5_libterm_g, align 1, !tbaa !13, !range !15, !noundef !16
  %12 = trunc i8 %11 to i1
  %13 = xor i1 %12, true
  br label %14

14:                                               ; preds = %10, %1
  %15 = phi i1 [ true, %1 ], [ %13, %10 ]
  %16 = xor i1 %15, true
  %17 = xor i1 %16, true
  %18 = zext i1 %17 to i32
  %19 = sext i32 %18 to i64
  %20 = call i64 @llvm.expect.i64(i64 %19, i64 1)
  %21 = icmp ne i64 %20, 0
  br i1 %21, label %22, label %91

22:                                               ; preds = %14
  %23 = load ptr, ptr %3, align 8, !tbaa !3
  %24 = getelementptr inbounds nuw %struct.H5F_shared_t, ptr %23, i32 0, i32 13
  %25 = load i64, ptr %24, align 8, !tbaa !40
  %26 = and i64 %25, 6
  %27 = icmp ne i64 %26, 0
  br i1 %27, label %28, label %89

28:                                               ; preds = %22
  %29 = load ptr, ptr %3, align 8, !tbaa !3
  %30 = getelementptr inbounds nuw %struct.H5F_shared_t, ptr %29, i32 0, i32 65
  %31 = getelementptr inbounds nuw %struct.H5F_meta_accum_t, ptr %30, i32 0, i32 6
  %32 = load i8, ptr %31, align 8, !tbaa !57, !range !15, !noundef !16
  %33 = trunc i8 %32 to i1
  br i1 %33, label %34, label %89

34:                                               ; preds = %28
  call void @llvm.lifetime.start.p0(i64 8, ptr %6) #7
  %35 = load ptr, ptr %3, align 8, !tbaa !3
  %36 = getelementptr inbounds nuw %struct.H5F_shared_t, ptr %35, i32 0, i32 0
  %37 = load ptr, ptr %36, align 8, !tbaa !17
  store ptr %37, ptr %6, align 8, !tbaa !39
  %38 = load ptr, ptr %6, align 8, !tbaa !39
  %39 = load ptr, ptr %3, align 8, !tbaa !3
  %40 = getelementptr inbounds nuw %struct.H5F_shared_t, ptr %39, i32 0, i32 65
  %41 = getelementptr inbounds nuw %struct.H5F_meta_accum_t, ptr %40, i32 0, i32 1
  %42 = load i64, ptr %41, align 8, !tbaa !56
  %43 = load ptr, ptr %3, align 8, !tbaa !3
  %44 = getelementptr inbounds nuw %struct.H5F_shared_t, ptr %43, i32 0, i32 65
  %45 = getelementptr inbounds nuw %struct.H5F_meta_accum_t, ptr %44, i32 0, i32 4
  %46 = load i64, ptr %45, align 8, !tbaa !59
  %47 = add i64 %42, %46
  %48 = load ptr, ptr %3, align 8, !tbaa !3
  %49 = getelementptr inbounds nuw %struct.H5F_shared_t, ptr %48, i32 0, i32 65
  %50 = getelementptr inbounds nuw %struct.H5F_meta_accum_t, ptr %49, i32 0, i32 5
  %51 = load i64, ptr %50, align 8, !tbaa !58
  %52 = load ptr, ptr %3, align 8, !tbaa !3
  %53 = getelementptr inbounds nuw %struct.H5F_shared_t, ptr %52, i32 0, i32 65
  %54 = getelementptr inbounds nuw %struct.H5F_meta_accum_t, ptr %53, i32 0, i32 0
  %55 = load ptr, ptr %54, align 8, !tbaa !53
  %56 = load ptr, ptr %3, align 8, !tbaa !3
  %57 = getelementptr inbounds nuw %struct.H5F_shared_t, ptr %56, i32 0, i32 65
  %58 = getelementptr inbounds nuw %struct.H5F_meta_accum_t, ptr %57, i32 0, i32 4
  %59 = load i64, ptr %58, align 8, !tbaa !59
  %60 = getelementptr inbounds nuw i8, ptr %55, i64 %59
  %61 = call i32 @H5FD_write(ptr noundef %38, i32 noundef 0, i64 noundef %47, i64 noundef %51, ptr noundef %60)
  %62 = icmp slt i32 %61, 0
  br i1 %62, label %63, label %82

63:                                               ; preds = %34
  br label %64

64:                                               ; preds = %63
  br label %65

65:                                               ; preds = %64
  br label %66

66:                                               ; preds = %65
  %67 = load i64, ptr @H5E_IO_g, align 8, !tbaa !10
  %68 = load i64, ptr @H5E_WRITEERROR_g, align 8, !tbaa !10
  %69 = call i32 (ptr, ptr, i32, i64, i64, ptr, ...) @H5E_printf_stack(ptr noundef @.str, ptr noundef @__func__.H5F__accum_flush, i32 noundef 1022, i64 noundef %67, i64 noundef %68, ptr noundef @.str.4)
  br label %70

70:                                               ; preds = %66
  br label %71

71:                                               ; preds = %70
  store i8 1, ptr %5, align 1, !tbaa !13
  %72 = load i8, ptr %5, align 1, !tbaa !13, !range !15, !noundef !16
  %73 = trunc i8 %72 to i1
  %74 = zext i1 %73 to i8
  store i8 %74, ptr %5, align 1, !tbaa !13
  br label %75

75:                                               ; preds = %71
  br label %76

76:                                               ; preds = %75
  br label %77

77:                                               ; preds = %76
  store i32 -1, ptr %4, align 4, !tbaa !8
  store i32 10, ptr %7, align 4
  br label %86

78:                                               ; No predecessors!
  br label %79

79:                                               ; preds = %78
  br label %80

80:                                               ; preds = %79
  br label %81

81:                                               ; preds = %80
  br label %82

82:                                               ; preds = %81, %34
  %83 = load ptr, ptr %3, align 8, !tbaa !3
  %84 = getelementptr inbounds nuw %struct.H5F_shared_t, ptr %83, i32 0, i32 65
  %85 = getelementptr inbounds nuw %struct.H5F_meta_accum_t, ptr %84, i32 0, i32 6
  store i8 0, ptr %85, align 8, !tbaa !57
  store i32 0, ptr %7, align 4
  br label %86

86:                                               ; preds = %77, %82
  call void @llvm.lifetime.end.p0(i64 8, ptr %6) #7
  %87 = load i32, ptr %7, align 4
  switch i32 %87, label %93 [
    i32 0, label %88
    i32 10, label %90
  ]

88:                                               ; preds = %86
  br label %89

89:                                               ; preds = %88, %28, %22
  br label %90

90:                                               ; preds = %89, %86
  br label %91

91:                                               ; preds = %90, %14
  %92 = load i32, ptr %4, align 4, !tbaa !8
  store i32 %92, ptr %2, align 4
  store i32 1, ptr %7, align 4
  br label %93

93:                                               ; preds = %91, %86
  call void @llvm.lifetime.end.p0(i64 1, ptr %5) #7
  call void @llvm.lifetime.end.p0(i64 4, ptr %4) #7
  %94 = load i32, ptr %2, align 4
  ret i32 %94
}