; Function Attrs: nounwind uwtable
define range(i32 -1, 1) i32 @H5F__accum_flush(ptr noundef captures(none) %0) local_unnamed_addr #0 {
  %2 = load i8, ptr @H5F_init_g, align 1, !tbaa !3, !range !7, !noundef !8
  %3 = trunc nuw i8 %2 to i1
  %4 = load i8, ptr @H5_libterm_g, align 1, !range !7
  %5 = trunc nuw i8 %4 to i1
  %6 = xor i1 %5, true
  %7 = select i1 %3, i1 true, i1 %6
  br i1 %7, label %8, label %35, !prof !9

8:                                                ; preds = %1
  %9 = getelementptr inbounds nuw i8, ptr %0, i64 88
  %10 = load i64, ptr %9, align 8, !tbaa !35
  %11 = and i64 %10, 6
  %.not = icmp eq i64 %11, 0
  br i1 %.not, label %35, label %12

12:                                               ; preds = %8
  %13 = getelementptr inbounds nuw i8, ptr %0, i64 2040
  %14 = load i8, ptr %13, align 8, !tbaa !46, !range !7, !noundef !8
  %15 = trunc nuw i8 %14 to i1
  br i1 %15, label %16, label %35

16:                                               ; preds = %12
  %17 = getelementptr inbounds nuw i8, ptr %0, i64 1992
  %18 = load ptr, ptr %0, align 8, !tbaa !10
  %19 = getelementptr inbounds nuw i8, ptr %0, i64 2000
  %20 = load i64, ptr %19, align 8, !tbaa !47
  %21 = getelementptr inbounds nuw i8, ptr %0, i64 2024
  %22 = load i64, ptr %21, align 8, !tbaa !48
  %23 = add i64 %22, %20
  %24 = getelementptr inbounds nuw i8, ptr %0, i64 2032
  %25 = load i64, ptr %24, align 8, !tbaa !49
  %26 = load ptr, ptr %17, align 8, !tbaa !50
  %27 = getelementptr inbounds nuw i8, ptr %26, i64 %22
  %28 = tail call i32 @H5FD_write(ptr noundef %18, i32 noundef 0, i64 noundef %23, i64 noundef %25, ptr noundef %27) #6
  %29 = icmp slt i32 %28, 0
  br i1 %29, label %30, label %34

30:                                               ; preds = %16
  %31 = load i64, ptr @H5E_IO_g, align 8, !tbaa !41
  %32 = load i64, ptr @H5E_WRITEERROR_g, align 8, !tbaa !41
  %33 = tail call i32 (ptr, ptr, i32, i64, i64, ptr, ...) @H5E_printf_stack(ptr noundef nonnull @.str, ptr noundef nonnull @__func__.H5F__accum_flush, i32 noundef 1022, i64 noundef %31, i64 noundef %32, ptr noundef nonnull @.str.4) #6
  br label %35

34:                                               ; preds = %16
  store i8 0, ptr %13, align 8, !tbaa !46
  br label %35

35:                                               ; preds = %30, %34, %1, %8, %12
  %.013 = phi i32 [ 0, %12 ], [ 0, %8 ], [ 0, %1 ], [ -1, %30 ], [ 0, %34 ]
  ret i32 %.013
}